; Function Attrs: mustprogress nofree norecurse nosync nounwind willreturn memory(argmem: readwrite) uwtable
define void @_ZN6duckdb12ColumnWriterC2ERNS_13ParquetWriterEmNS_6vectorINSt7__cxx1112basic_stringIcSt11char_traitsIcESaIcEEELb1EEEmmb(ptr noundef nonnull writeonly align 8 captures(none) dereferenceable(65) initializes((0, 65)) %0, ptr noundef nonnull align 8 dereferenceable(672) %1, i64 noundef %2, ptr noundef captures(none) %3, i64 noundef %4, i64 noundef %5, i1 noundef zeroext %6) unnamed_addr #7 align 2 {
  %8 = zext i1 %6 to i8
  store ptr getelementptr inbounds nuw inrange(-16, 80) (i8, ptr @_ZTVN6duckdb12ColumnWriterE, i64 16), ptr %0, align 8, !tbaa !19
  %9 = getelementptr inbounds nuw i8, ptr %0, i64 8
  store ptr %1, ptr %9, align 8, !tbaa !37
  %10 = getelementptr inbounds nuw i8, ptr %0, i64 16
  store i64 %2, ptr %10, align 8, !tbaa !39
  %11 = getelementptr inbounds nuw i8, ptr %0, i64 24
  %12 = load ptr, ptr %3, align 8, !tbaa !48
  store ptr %12, ptr %11, align 8, !tbaa !48
  %13 = getelementptr inbounds nuw i8, ptr %0, i64 32
  %14 = getelementptr inbounds nuw i8, ptr %3, i64 8
  %15 = load ptr, ptr %14, align 8, !tbaa !49
  store ptr %15, ptr %13, align 8, !tbaa !49
  %16 = getelementptr inbounds nuw i8, ptr %0, i64 40
  %17 = getelementptr inbounds nuw i8, ptr %3, i64 16
  %18 = load ptr, ptr %17, align 8, !tbaa !50
  store ptr %18, ptr %16, align 8, !tbaa !50
  tail call void @llvm.memset.p0.i64(ptr noundef nonnull align 8 dereferenceable(24) %3, i8 0, i64 24, i1 false)
  %19 = getelementptr inbounds nuw i8, ptr %0, i64 48
  store i64 %4, ptr %19, align 8, !tbaa !51
  %20 = getelementptr inbounds nuw i8, ptr %0, i64 56
  store i64 %5, ptr %20, align 8, !tbaa !52
  %21 = getelementptr inbounds nuw i8, ptr %0, i64 64
  store i8 %8, ptr %21, align 8, !tbaa !53
  ret void
}